; Function Attrs: mustprogress nounwind uwtable
define dso_local noalias ptr @LLVMPrintDbgRecordToString(ptr noundef %0) local_unnamed_addr #0 {
  %2 = alloca %"class.std::__cxx11::basic_string", align 8
  %3 = alloca %"class.llvm::raw_string_ostream", align 8
  call void @_ZNSt7__cxx1112basic_stringIcSt11char_traitsIcESaIcEEC1Ev(ptr noundef nonnull align 8 dereferenceable(32) %2) #35
  %4 = getelementptr inbounds nuw i8, ptr %3, i64 8
  store i32 0, ptr %4, align 8
  %5 = getelementptr inbounds nuw i8, ptr %3, i64 40
  store i8 0, ptr %5, align 8
  %6 = getelementptr inbounds nuw i8, ptr %3, i64 44
  store i32 1, ptr %6, align 4
  %7 = getelementptr inbounds nuw i8, ptr %3, i64 16
  call void @llvm.memset.p0.i64(ptr noundef nonnull align 8 dereferenceable(24) %7, i8 0, i64 24, i1 false)
  store ptr getelementptr inbounds nuw inrange(-16, 104) (i8, ptr @_ZTVN4llvm18raw_string_ostreamE, i64 16), ptr %3, align 8
  %8 = getelementptr inbounds nuw i8, ptr %3, i64 48
  store ptr %2, ptr %8, align 8
  call void @_ZN4llvm11raw_ostream16SetBufferAndModeEPcmNS0_10BufferKindE(ptr noundef nonnull align 8 dereferenceable(56) %3, ptr noundef null, i64 noundef 0, i32 noundef 0) #35
  %.not = icmp eq ptr %0, null
  br i1 %.not, label %10, label %9

9:                                                ; preds = %1
  call void @_ZNK4llvm9DbgRecord5printERNS_11raw_ostreamEb(ptr noundef nonnull align 8 dereferenceable(33) %0, ptr noundef nonnull align 8 dereferenceable(48) %3, i1 noundef zeroext false) #35
  br label %_ZN4llvm11raw_ostreamlsEPKc.exit

10:                                               ; preds = %1
  %11 = getelementptr inbounds nuw i8, ptr %3, i64 24
  %12 = load ptr, ptr %11, align 8
  %13 = getelementptr inbounds nuw i8, ptr %3, i64 32
  %14 = load ptr, ptr %13, align 8
  %15 = ptrtoint ptr %12 to i64
  %16 = ptrtoint ptr %14 to i64
  %17 = sub i64 %15, %16
  %18 = icmp ult i64 %17, 25
  br i1 %18, label %19, label %21

19:                                               ; preds = %10
  %20 = call noundef nonnull align 8 dereferenceable(48) ptr @_ZN4llvm11raw_ostream5writeEPKcm(ptr noundef nonnull align 8 dereferenceable(48) %3, ptr noundef nonnull @.str.3, i64 noundef 25) #35
  br label %_ZN4llvm11raw_ostreamlsEPKc.exit

21:                                               ; preds = %10
  call void @llvm.memcpy.p0.p0.i64(ptr noundef nonnull align 1 dereferenceable(25) %14, ptr noundef nonnull align 1 dereferenceable(25) @.str.3, i64 25, i1 false)
  %22 = load ptr, ptr %13, align 8
  %23 = getelementptr inbounds nuw i8, ptr %22, i64 25
  store ptr %23, ptr %13, align 8
  br label %_ZN4llvm11raw_ostreamlsEPKc.exit

_ZN4llvm11raw_ostreamlsEPKc.exit:                 ; preds = %21, %19, %9
  %24 = getelementptr inbounds nuw i8, ptr %3, i64 32
  %25 = load ptr, ptr %24, align 8
  %26 = load ptr, ptr %7, align 8
  %.not.i = icmp eq ptr %25, %26
  br i1 %.not.i, label %_ZN4llvm11raw_ostream5flushEv.exit, label %27

27:                                               ; preds = %_ZN4llvm11raw_ostreamlsEPKc.exit
  call void @_ZN4llvm11raw_ostream14flush_nonemptyEv(ptr noundef nonnull align 8 dereferenceable(48) %3) #35
  br label %_ZN4llvm11raw_ostream5flushEv.exit

_ZN4llvm11raw_ostream5flushEv.exit:               ; preds = %_ZN4llvm11raw_ostreamlsEPKc.exit, %27
  %28 = call noundef ptr @_ZNKSt7__cxx1112basic_stringIcSt11char_traitsIcESaIcEE5c_strEv(ptr noundef nonnull align 8 dereferenceable(32) %2) #35
  %29 = call noalias ptr @strdup(ptr noundef %28) #35
  call void @_ZN4llvm11raw_ostreamD2Ev(ptr noundef nonnull align 8 dereferenceable(56) %3) #35
  call void @_ZNSt7__cxx1112basic_stringIcSt11char_traitsIcESaIcEED1Ev(ptr noundef nonnull align 8 dereferenceable(32) %2) #35
  ret ptr %29
}